target datalayout = "e-m:e-p270:32:32-p271:32:32-p272:64:64-i64:64-i128:128-f80:128-n8:16:32:64-S128"
target triple = "x86_64-pc-linux-gnu"

%struct.evp_aead_ctx_st = type { ptr, ptr }
%struct.AEAD_SSL3_CTX = type { %struct.evp_cipher_ctx_st, %struct.env_md_ctx_st }
%struct.evp_cipher_ctx_st = type { ptr, ptr, ptr, i32, i32, i32, [16 x i8], [16 x i8], [32 x i8], i32, i32, i32, i32, [32 x i8] }
%struct.env_md_ctx_st = type { ptr, ptr, ptr, ptr }

@.str = private unnamed_addr constant [126 x i8] c"generated/home/dtcxzyw/WorkSpace/Projects/compilers/llvm-opt-benchmark/bench/libquic/libquic/boringssl/crypto/cipher/e_ssl3.c\00", align 1

; Function Attrs: nounwind uwtable
define internal void @aead_ssl3_cleanup(ptr noundef %0) #0 {
  %2 = alloca ptr, align 8
  %3 = alloca ptr, align 8
  store ptr %0, ptr %2, align 8, !tbaa !6
  call void @llvm.lifetime.start.p0(i64 8, ptr %3) #6
  %4 = load ptr, ptr %2, align 8, !tbaa !6
  %5 = getelementptr inbounds nuw %struct.evp_aead_ctx_st, ptr %4, i32 0, i32 1
  %6 = load ptr, ptr %5, align 8, !tbaa !17
  store ptr %6, ptr %3, align 8, !tbaa !20
  %7 = load ptr, ptr %3, align 8, !tbaa !20
  %8 = getelementptr inbounds nuw %struct.AEAD_SSL3_CTX, ptr %7, i32 0, i32 0
  %9 = call i32 @EVP_CIPHER_CTX_cleanup(ptr noundef %8)
  %10 = load ptr, ptr %3, align 8, !tbaa !20
  %11 = getelementptr inbounds nuw %struct.AEAD_SSL3_CTX, ptr %10, i32 0, i32 1
  %12 = call i32 @EVP_MD_CTX_cleanup(ptr noundef %11)
  %13 = load ptr, ptr %3, align 8, !tbaa !20
  call void @free(ptr noundef %13) #6
  %14 = load ptr, ptr %2, align 8, !tbaa !6
  %15 = getelementptr inbounds nuw %struct.evp_aead_ctx_st, ptr %14, i32 0, i32 1
  store ptr null, ptr %15, align 8, !tbaa !17
  call void @llvm.lifetime.end.p0(i64 8, ptr %3) #6
  ret void
}

; Function Attrs: nounwind uwtable
define internal i32 @aead_ssl3_init(ptr noundef %0, ptr noundef %1, i64 noundef %2, i64 noundef %3, i32 noundef %4, ptr noundef %5, ptr noundef %6) #0 {
  %8 = alloca i32, align 4
  %9 = alloca ptr, align 8
  %10 = alloca ptr, align 8
  %11 = alloca i64, align 8
  %12 = alloca i64, align 8
  %13 = alloca i32, align 4
  %14 = alloca ptr, align 8
  %15 = alloca ptr, align 8
  %16 = alloca i64, align 8
  %17 = alloca i64, align 8
  %18 = alloca ptr, align 8
  %19 = alloca i32, align 4
  store ptr %0, ptr %9, align 8, !tbaa !6
  store ptr %1, ptr %10, align 8, !tbaa !11
  store i64 %2, ptr %11, align 8, !tbaa !13
  store i64 %3, ptr %12, align 8, !tbaa !13
  store i32 %4, ptr %13, align 4, !tbaa !15
  store ptr %5, ptr %14, align 8, !tbaa !38
  store ptr %6, ptr %15, align 8, !tbaa !39
  %20 = load i64, ptr %12, align 8, !tbaa !13
  %21 = icmp ne i64 %20, 0
  br i1 %21, label %22, label %28

22:                                               ; preds = %7
  %23 = load i64, ptr %12, align 8, !tbaa !13
  %24 = load ptr, ptr %15, align 8, !tbaa !39
  %25 = call i64 @EVP_MD_size(ptr noundef %24)
  %26 = icmp ne i64 %23, %25
  br i1 %26, label %27, label %28

27:                                               ; preds = %22
  call void @ERR_put_error(i32 noundef 30, i32 noundef 0, i32 noundef 122, ptr noundef @.str, i32 noundef 88)
  store i32 0, ptr %8, align 4
  br label %92

28:                                               ; preds = %22, %7
  %29 = load i64, ptr %11, align 8, !tbaa !13
  %30 = load ptr, ptr %9, align 8, !tbaa !6
  %31 = getelementptr inbounds nuw %struct.evp_aead_ctx_st, ptr %30, i32 0, i32 0
  %32 = load ptr, ptr %31, align 8, !tbaa !31
  %33 = call i64 @EVP_AEAD_key_length(ptr noundef %32)
  %34 = icmp ne i64 %29, %33
  br i1 %34, label %35, label %36

35:                                               ; preds = %28
  call void @ERR_put_error(i32 noundef 30, i32 noundef 0, i32 noundef 102, ptr noundef @.str, i32 noundef 93)
  store i32 0, ptr %8, align 4
  br label %92

36:                                               ; preds = %28
  call void @llvm.lifetime.start.p0(i64 8, ptr %16) #6
  %37 = load ptr, ptr %15, align 8, !tbaa !39
  %38 = call i64 @EVP_MD_size(ptr noundef %37)
  store i64 %38, ptr %16, align 8, !tbaa !13
  call void @llvm.lifetime.start.p0(i64 8, ptr %17) #6
  %39 = load ptr, ptr %14, align 8, !tbaa !38
  %40 = call i32 @EVP_CIPHER_key_length(ptr noundef %39)
  %41 = zext i32 %40 to i64
  store i64 %41, ptr %17, align 8, !tbaa !13
  call void @llvm.lifetime.start.p0(i64 8, ptr %18) #6
  %42 = call noalias ptr @malloc(i64 noundef 184) #7
  store ptr %42, ptr %18, align 8, !tbaa !20
  %43 = load ptr, ptr %18, align 8, !tbaa !20
  %44 = icmp eq ptr %43, null
  br i1 %44, label %45, label %46

45:                                               ; preds = %36
  call void @ERR_put_error(i32 noundef 30, i32 noundef 0, i32 noundef 65, ptr noundef @.str, i32 noundef 105)
  store i32 0, ptr %8, align 4
  store i32 1, ptr %19, align 4
  br label %91

46:                                               ; preds = %36
  %47 = load ptr, ptr %18, align 8, !tbaa !20
  %48 = getelementptr inbounds nuw %struct.AEAD_SSL3_CTX, ptr %47, i32 0, i32 0
  call void @EVP_CIPHER_CTX_init(ptr noundef %48)
  %49 = load ptr, ptr %18, align 8, !tbaa !20
  %50 = getelementptr inbounds nuw %struct.AEAD_SSL3_CTX, ptr %49, i32 0, i32 1
  call void @EVP_MD_CTX_init(ptr noundef %50)
  %51 = load ptr, ptr %18, align 8, !tbaa !20
  %52 = load ptr, ptr %9, align 8, !tbaa !6
  %53 = getelementptr inbounds nuw %struct.evp_aead_ctx_st, ptr %52, i32 0, i32 1
  store ptr %51, ptr %53, align 8, !tbaa !17
  %54 = load ptr, ptr %18, align 8, !tbaa !20
  %55 = getelementptr inbounds nuw %struct.AEAD_SSL3_CTX, ptr %54, i32 0, i32 0
  %56 = load ptr, ptr %14, align 8, !tbaa !38
  %57 = load ptr, ptr %10, align 8, !tbaa !11
  %58 = load i64, ptr %16, align 8, !tbaa !13
  %59 = getelementptr inbounds nuw i8, ptr %57, i64 %58
  %60 = load ptr, ptr %10, align 8, !tbaa !11
  %61 = load i64, ptr %16, align 8, !tbaa !13
  %62 = load i64, ptr %17, align 8, !tbaa !13
  %63 = add i64 %61, %62
  %64 = getelementptr inbounds nuw i8, ptr %60, i64 %63
  %65 = load i32, ptr %13, align 4, !tbaa !15
  %66 = icmp eq i32 %65, 1
  %67 = zext i1 %66 to i32
  %68 = call i32 @EVP_CipherInit_ex(ptr noundef %55, ptr noundef %56, ptr noundef null, ptr noundef %59, ptr noundef %64, i32 noundef %67)
  %69 = icmp ne i32 %68, 0
  br i1 %69, label %70, label %83

70:                                               ; preds = %46
  %71 = load ptr, ptr %18, align 8, !tbaa !20
  %72 = getelementptr inbounds nuw %struct.AEAD_SSL3_CTX, ptr %71, i32 0, i32 1
  %73 = load ptr, ptr %15, align 8, !tbaa !39
  %74 = call i32 @EVP_DigestInit_ex(ptr noundef %72, ptr noundef %73, ptr noundef null)
  %75 = icmp ne i32 %74, 0
  br i1 %75, label %76, label %83

76:                                               ; preds = %70
  %77 = load ptr, ptr %18, align 8, !tbaa !20
  %78 = getelementptr inbounds nuw %struct.AEAD_SSL3_CTX, ptr %77, i32 0, i32 1
  %79 = load ptr, ptr %10, align 8, !tbaa !11
  %80 = load i64, ptr %16, align 8, !tbaa !13
  %81 = call i32 @EVP_DigestUpdate(ptr noundef %78, ptr noundef %79, i64 noundef %80)
  %82 = icmp ne i32 %81, 0
  br i1 %82, label %87, label %83

83:                                               ; preds = %76, %70, %46
  %84 = load ptr, ptr %9, align 8, !tbaa !6
  call void @aead_ssl3_cleanup(ptr noundef %84)
  %85 = load ptr, ptr %9, align 8, !tbaa !6
  %86 = getelementptr inbounds nuw %struct.evp_aead_ctx_st, ptr %85, i32 0, i32 1
  store ptr null, ptr %86, align 8, !tbaa !17
  store i32 0, ptr %8, align 4
  store i32 1, ptr %19, align 4
  br label %91

87:                                               ; preds = %76
  %88 = load ptr, ptr %18, align 8, !tbaa !20
  %89 = getelementptr inbounds nuw %struct.AEAD_SSL3_CTX, ptr %88, i32 0, i32 0
  %90 = call i32 @EVP_CIPHER_CTX_set_padding(ptr noundef %89, i32 noundef 0)
  store i32 1, ptr %8, align 4
  store i32 1, ptr %19, align 4
  br label %91

91:                                               ; preds = %87, %83, %45
  call void @llvm.lifetime.end.p0(i64 8, ptr %18) #6
  call void @llvm.lifetime.end.p0(i64 8, ptr %17) #6
  call void @llvm.lifetime.end.p0(i64 8, ptr %16) #6
  br label %92

92:                                               ; preds = %91, %35, %27
  %93 = load i32, ptr %8, align 4
  ret i32 %93
}