; Function Attrs: nounwind uwtable
define internal fastcc range(i32 0, 2) i32 @aead_ssl3_init(ptr noundef captures(none) %0, ptr noundef %1, i64 noundef %2, i64 noundef %3, i32 noundef %4, ptr noundef %5, ptr noundef %6) unnamed_addr #1 {
  %.not = icmp eq i64 %3, 0
  br i1 %.not, label %11, label %8

8:                                                ; preds = %7
  %9 = tail call i64 @EVP_MD_size(ptr noundef %6) #7
  %.not30 = icmp eq i64 %3, %9
  br i1 %.not30, label %11, label %10

10:                                               ; preds = %8
  tail call void @ERR_put_error(i32 noundef 30, i32 noundef 0, i32 noundef 122, ptr noundef nonnull @.str, i32 noundef 88) #7
  br label %41

11:                                               ; preds = %8, %7
  %12 = load ptr, ptr %0, align 8, !tbaa !21
  %13 = tail call i64 @EVP_AEAD_key_length(ptr noundef %12) #7
  %.not31 = icmp eq i64 %2, %13
  br i1 %.not31, label %15, label %14

14:                                               ; preds = %11
  tail call void @ERR_put_error(i32 noundef 30, i32 noundef 0, i32 noundef 102, ptr noundef nonnull @.str, i32 noundef 93) #7
  br label %41

15:                                               ; preds = %11
  %16 = tail call i64 @EVP_MD_size(ptr noundef %6) #7
  %17 = tail call i32 @EVP_CIPHER_key_length(ptr noundef %5) #7
  %18 = tail call noalias dereferenceable_or_null(184) ptr @malloc(i64 noundef 184) #8
  %19 = icmp eq ptr %18, null
  br i1 %19, label %20, label %21

20:                                               ; preds = %15
  tail call void @ERR_put_error(i32 noundef 30, i32 noundef 0, i32 noundef 65, ptr noundef nonnull @.str, i32 noundef 105) #7
  br label %41

21:                                               ; preds = %15
  %22 = zext i32 %17 to i64
  tail call void @EVP_CIPHER_CTX_init(ptr noundef nonnull %18) #7
  %23 = getelementptr inbounds nuw i8, ptr %18, i64 152
  tail call void @EVP_MD_CTX_init(ptr noundef nonnull %23) #7
  %24 = getelementptr inbounds nuw i8, ptr %0, i64 8
  store ptr %18, ptr %24, align 8, !tbaa !6
  %25 = getelementptr inbounds nuw i8, ptr %1, i64 %16
  %26 = getelementptr i8, ptr %25, i64 %22
  %27 = icmp eq i32 %4, 1
  %28 = zext i1 %27 to i32
  %29 = tail call i32 @EVP_CipherInit_ex(ptr noundef nonnull %18, ptr noundef %5, ptr noundef null, ptr noundef %25, ptr noundef %26, i32 noundef %28) #7
  %.not32 = icmp eq i32 %29, 0
  br i1 %.not32, label %34, label %30

30:                                               ; preds = %21
  %31 = tail call i32 @EVP_DigestInit_ex(ptr noundef nonnull %23, ptr noundef %6, ptr noundef null) #7
  %.not33 = icmp eq i32 %31, 0
  br i1 %.not33, label %34, label %32

32:                                               ; preds = %30
  %33 = tail call i32 @EVP_DigestUpdate(ptr noundef nonnull %23, ptr noundef %1, i64 noundef %16) #7
  %.not34 = icmp eq i32 %33, 0
  br i1 %.not34, label %34, label %39

34:                                               ; preds = %32, %30, %21
  %35 = load ptr, ptr %24, align 8, !tbaa !6
  %36 = tail call i32 @EVP_CIPHER_CTX_cleanup(ptr noundef %35) #7
  %37 = getelementptr inbounds nuw i8, ptr %35, i64 152
  %38 = tail call i32 @EVP_MD_CTX_cleanup(ptr noundef nonnull %37) #7
  tail call void @free(ptr noundef %35) #7
  store ptr null, ptr %24, align 8, !tbaa !6
  br label %41

39:                                               ; preds = %32
  %40 = tail call i32 @EVP_CIPHER_CTX_set_padding(ptr noundef nonnull %18, i32 noundef 0) #7
  br label %41

41:                                               ; preds = %20, %34, %39, %14, %10
  %.0 = phi i32 [ 0, %10 ], [ 0, %14 ], [ 0, %20 ], [ 1, %39 ], [ 0, %34 ]
  ret i32 %.0
}